target datalayout = "e-m:e-p270:32:32-p271:32:32-p272:64:64-i64:64-i128:128-f80:128-n8:16:32:64-S128"
target triple = "x86_64-pc-linux-gnu"

%struct.t_trxstatus = type { i32, i32, float, float, ptr, ptr, ptr, i32, ptr }
%"class.std::filesystem::__cxx11::path" = type { %"class.std::__cxx11::basic_string", %"struct.std::filesystem::__cxx11::path::_List" }
%"class.std::__cxx11::basic_string" = type { %"struct.std::__cxx11::basic_string<char>::_Alloc_hider", i64, %union.anon }
%"struct.std::__cxx11::basic_string<char>::_Alloc_hider" = type { ptr }
%union.anon = type { i64, [8 x i8] }
%"struct.std::filesystem::__cxx11::path::_List" = type { %"class.std::unique_ptr" }
%"class.std::unique_ptr" = type { %"struct.std::__uniq_ptr_data" }
%"struct.std::__uniq_ptr_data" = type { %"class.std::__uniq_ptr_impl" }
%"class.std::__uniq_ptr_impl" = type { %"class.std::tuple" }
%"class.std::tuple" = type { %"struct.std::_Tuple_impl" }
%"struct.std::_Tuple_impl" = type { %"struct.std::_Head_base.1" }
%"struct.std::_Head_base.1" = type { ptr }
%"class.std::allocator" = type { i8 }
%"class.gmx::ArrayRef" = type { %"struct.gmx::ArrayRefIter", %"struct.gmx::ArrayRefIter" }
%"struct.gmx::ArrayRefIter" = type { ptr }

@.str.2 = private unnamed_addr constant [122 x i8] c"generated/home/dtcxzyw/WorkSpace/Projects/compilers/llvm-opt-benchmark/bench/gromacs/gromacs/src/gromacs/fileio/trxio.cpp\00", align 1
@.str.6 = private unnamed_addr constant [7 x i8] c"incons\00", align 1
@.str.17 = private unnamed_addr constant [40 x i8] c"Sorry, can only prepare for TNG output.\00", align 1
@.str.18 = private unnamed_addr constant [4 x i8] c"out\00", align 1

; Function Attrs: mustprogress nounwind uwtable
define linkonce_odr noundef i64 @_ZNK3gmx12ArrayRefIterIKiEmiES2_(ptr noundef nonnull align 8 dereferenceable(8) %0, ptr %1) #0 comdat align 2 {
  %3 = alloca %"struct.gmx::ArrayRefIter", align 8
  %4 = alloca ptr, align 8
  %5 = getelementptr inbounds %"struct.gmx::ArrayRefIter", ptr %3, i32 0, i32 0
  store ptr %1, ptr %5, align 8
  store ptr %0, ptr %4, align 8
  %6 = load ptr, ptr %4, align 8
  %7 = getelementptr inbounds %"struct.gmx::ArrayRefIter", ptr %6, i32 0, i32 0
  %8 = load ptr, ptr %7, align 8
  %9 = getelementptr inbounds %"struct.gmx::ArrayRefIter", ptr %3, i32 0, i32 0
  %10 = load ptr, ptr %9, align 8
  %11 = ptrtoint ptr %8 to i64
  %12 = ptrtoint ptr %10 to i64
  %13 = sub i64 %11, %12
  %14 = sdiv exact i64 %13, 4
  ret i64 %14
}

; Function Attrs: mustprogress nounwind uwtable
define linkonce_odr noundef ptr @_ZNK3gmx12ArrayRefIterIKiE4dataEv(ptr noundef nonnull align 8 dereferenceable(8) %0) #0 comdat align 2 {
  %2 = alloca ptr, align 8
  store ptr %0, ptr %2, align 8
  %3 = load ptr, ptr %2, align 8
  %4 = getelementptr inbounds %"struct.gmx::ArrayRefIter", ptr %3, i32 0, i32 0
  %5 = load ptr, ptr %4, align 8
  ret ptr %5
}

; Function Attrs: mustprogress nounwind uwtable
define linkonce_odr noundef i64 @_ZNK3gmx8ArrayRefIKiE4sizeEv(ptr noundef nonnull align 8 dereferenceable(16) %0) #0 comdat align 2 {
  %2 = alloca ptr, align 8
  %3 = alloca %"struct.gmx::ArrayRefIter", align 8
  store ptr %0, ptr %2, align 8
  %4 = load ptr, ptr %2, align 8
  %5 = getelementptr inbounds %"class.gmx::ArrayRef", ptr %4, i32 0, i32 1
  %6 = getelementptr inbounds %"class.gmx::ArrayRef", ptr %4, i32 0, i32 0
  call void @llvm.memcpy.p0.p0.i64(ptr align 8 %3, ptr align 8 %6, i64 8, i1 false)
  %7 = getelementptr inbounds %"struct.gmx::ArrayRefIter", ptr %3, i32 0, i32 0
  %8 = load ptr, ptr %7, align 8
  %9 = call noundef i64 @_ZNK3gmx12ArrayRefIterIKiEmiES2_(ptr noundef nonnull align 8 dereferenceable(8) %5, ptr %8) #12
  ret i64 %9
}

; Function Attrs: mustprogress nounwind uwtable
define linkonce_odr void @_ZN3gmx12ArrayRefIterIKiEC2EPS1_(ptr noundef nonnull align 8 dereferenceable(8) %0, ptr noundef %1) unnamed_addr #0 comdat align 2 {
  %3 = alloca ptr, align 8
  %4 = alloca ptr, align 8
  store ptr %0, ptr %3, align 8
  store ptr %1, ptr %4, align 8
  %5 = load ptr, ptr %3, align 8
  %6 = getelementptr inbounds %"struct.gmx::ArrayRefIter", ptr %5, i32 0, i32 0
  %7 = load ptr, ptr %4, align 8
  store ptr %7, ptr %6, align 8
  ret void
}

; Function Attrs: mustprogress nounwind uwtable
define linkonce_odr noundef ptr @_ZNK3gmx8ArrayRefIKiE4dataEv(ptr noundef nonnull align 8 dereferenceable(16) %0) #0 comdat align 2 {
  %2 = alloca ptr, align 8
  store ptr %0, ptr %2, align 8
  %3 = load ptr, ptr %2, align 8
  %4 = getelementptr inbounds %"class.gmx::ArrayRef", ptr %3, i32 0, i32 0
  %5 = call noundef ptr @_ZNK3gmx12ArrayRefIterIKiE4dataEv(ptr noundef nonnull align 8 dereferenceable(8) %4) #12
  ret ptr %5
}

; Function Attrs: mustprogress uwtable
define linkonce_odr void @_ZN3gmx8ArrayRefIKiEC2IRS2_vEEOT_(ptr noundef nonnull align 8 dereferenceable(16) %0, ptr noundef nonnull align 8 dereferenceable(16) %1) unnamed_addr #2 comdat align 2 {
  %3 = alloca ptr, align 8
  %4 = alloca ptr, align 8
  store ptr %0, ptr %3, align 8
  store ptr %1, ptr %4, align 8
  %5 = load ptr, ptr %3, align 8
  %6 = getelementptr inbounds %"class.gmx::ArrayRef", ptr %5, i32 0, i32 0
  %7 = load ptr, ptr %4, align 8
  %8 = call noundef ptr @_ZNK3gmx8ArrayRefIKiE4dataEv(ptr noundef nonnull align 8 dereferenceable(16) %7)
  call void @_ZN3gmx12ArrayRefIterIKiEC2EPS1_(ptr noundef nonnull align 8 dereferenceable(8) %6, ptr noundef %8) #12
  %9 = getelementptr inbounds %"class.gmx::ArrayRef", ptr %5, i32 0, i32 1
  %10 = load ptr, ptr %4, align 8
  %11 = call noundef ptr @_ZNK3gmx8ArrayRefIKiE4dataEv(ptr noundef nonnull align 8 dereferenceable(16) %10)
  %12 = load ptr, ptr %4, align 8
  %13 = call noundef i64 @_ZNK3gmx8ArrayRefIKiE4sizeEv(ptr noundef nonnull align 8 dereferenceable(16) %12)
  %14 = getelementptr inbounds i32, ptr %11, i64 %13
  call void @_ZN3gmx12ArrayRefIterIKiEC2EPS1_(ptr noundef nonnull align 8 dereferenceable(8) %9, ptr noundef %14) #12
  ret void
}

; Function Attrs: mustprogress nounwind uwtable
define internal void @_ZL11status_initP11t_trxstatus(ptr noundef %0) #0 {
  %2 = alloca ptr, align 8
  store ptr %0, ptr %2, align 8
  %3 = load ptr, ptr %2, align 8
  %4 = getelementptr inbounds %struct.t_trxstatus, ptr %3, i32 0, i32 0
  store i32 0, ptr %4, align 8
  %5 = load ptr, ptr %2, align 8
  %6 = getelementptr inbounds %struct.t_trxstatus, ptr %5, i32 0, i32 4
  store ptr null, ptr %6, align 8
  %7 = load ptr, ptr %2, align 8
  %8 = getelementptr inbounds %struct.t_trxstatus, ptr %7, i32 0, i32 5
  store ptr null, ptr %8, align 8
  %9 = load ptr, ptr %2, align 8
  %10 = getelementptr inbounds %struct.t_trxstatus, ptr %9, i32 0, i32 1
  store i32 -1, ptr %10, align 4
  %11 = load ptr, ptr %2, align 8
  %12 = getelementptr inbounds %struct.t_trxstatus, ptr %11, i32 0, i32 2
  store float 0.000000e+00, ptr %12, align 8
  %13 = load ptr, ptr %2, align 8
  %14 = getelementptr inbounds %struct.t_trxstatus, ptr %13, i32 0, i32 3
  store float 0.000000e+00, ptr %14, align 4
  %15 = load ptr, ptr %2, align 8
  %16 = getelementptr inbounds %struct.t_trxstatus, ptr %15, i32 0, i32 8
  store ptr null, ptr %16, align 8
  %17 = load ptr, ptr %2, align 8
  %18 = getelementptr inbounds %struct.t_trxstatus, ptr %17, i32 0, i32 6
  store ptr null, ptr %18, align 8
  ret void
}

; Function Attrs: mustprogress uwtable
define internal void @_ZL13gmx_snew_implI11t_trxstatusEvPKcS2_iRPT_m(ptr noundef %0, ptr noundef %1, i32 noundef %2, ptr noundef nonnull align 8 dereferenceable(8) %3, i64 noundef %4) #2 {
  %6 = alloca ptr, align 8
  %7 = alloca ptr, align 8
  %8 = alloca i32, align 4
  %9 = alloca ptr, align 8
  %10 = alloca i64, align 8
  store ptr %0, ptr %6, align 8
  store ptr %1, ptr %7, align 8
  store i32 %2, ptr %8, align 4
  store ptr %3, ptr %9, align 8
  store i64 %4, ptr %10, align 8
  %11 = load ptr, ptr %6, align 8
  %12 = load ptr, ptr %7, align 8
  %13 = load i32, ptr %8, align 4
  %14 = load i64, ptr %10, align 8
  %15 = call noundef ptr @_Z11save_callocPKcS0_imm(ptr noundef %11, ptr noundef %12, i32 noundef %13, i64 noundef %14, i64 noundef 56)
  %16 = load ptr, ptr %9, align 8
  store ptr %15, ptr %16, align 8
  ret void
}

; Function Attrs: mustprogress uwtable
define noundef ptr @_Z32trjtools_gmx_prepare_tng_writingRKNSt10filesystem7__cxx114pathEcP11t_trxstatusS3_iPK10gmx_mtop_tN3gmx8ArrayRefIKiEEPKc(ptr noundef nonnull align 8 dereferenceable(40) %0, i8 noundef signext %1, ptr noundef %2, ptr noundef nonnull align 8 dereferenceable(40) %3, i32 noundef %4, ptr noundef %5, ptr noundef byval(%"class.gmx::ArrayRef") align 8 %6, ptr noundef %7) #2 personality ptr @__gxx_personality_v0 {
  %9 = alloca ptr, align 8
  %10 = alloca i8, align 1
  %11 = alloca ptr, align 8
  %12 = alloca ptr, align 8
  %13 = alloca i32, align 4
  %14 = alloca ptr, align 8
  %15 = alloca ptr, align 8
  %16 = alloca %"class.std::__cxx11::basic_string", align 8
  %17 = alloca %"class.std::allocator", align 1
  %18 = alloca ptr, align 8
  %19 = alloca i32, align 4
  %20 = alloca %"class.std::filesystem::__cxx11::path", align 8
  %21 = alloca ptr, align 8
  %22 = alloca %"class.gmx::ArrayRef", align 8
  %23 = alloca ptr, align 8
  %24 = alloca %"class.gmx::ArrayRef", align 8
  %25 = alloca %"class.gmx::ArrayRef", align 8
  store ptr %0, ptr %9, align 8
  store i8 %1, ptr %10, align 1
  store ptr %2, ptr %11, align 8
  store ptr %3, ptr %12, align 8
  store i32 %4, ptr %13, align 4
  store ptr %5, ptr %14, align 8
  store ptr %7, ptr %15, align 8
  %26 = load i8, ptr %10, align 1
  %27 = sext i8 %26 to i32
  %28 = icmp ne i32 %27, 119
  br i1 %28, label %29, label %51

29:                                               ; preds = %8
  %30 = load i8, ptr %10, align 1
  %31 = sext i8 %30 to i32
  %32 = icmp ne i32 %31, 97
  br i1 %32, label %33, label %51

33:                                               ; preds = %29
  call void @_ZNSaIcEC1Ev(ptr noundef nonnull align 1 dereferenceable(1) %17) #12
  invoke void @_ZNSt7__cxx1112basic_stringIcSt11char_traitsIcESaIcEEC2IS3_EEPKcRKS3_(ptr noundef nonnull align 8 dereferenceable(32) %16, ptr noundef @.str.17, ptr noundef nonnull align 1 dereferenceable(1) %17)
          to label %34 unwind label %37

34:                                               ; preds = %33
  invoke void @_ZNSt10filesystem7__cxx114pathC2IA122_cS1_EERKT_NS1_6formatE(ptr noundef nonnull align 8 dereferenceable(40) %20, ptr noundef nonnull align 1 dereferenceable(122) @.str.2, i8 noundef zeroext 2)
          to label %35 unwind label %41

35:                                               ; preds = %34
  invoke void @_Z18gmx_error_functionPKcRKNSt7__cxx1112basic_stringIcSt11char_traitsIcESaIcEEERKNSt10filesystem7__cxx114pathEi(ptr noundef @.str.6, ptr noundef nonnull align 8 dereferenceable(32) %16, ptr noundef nonnull align 8 dereferenceable(40) %20, i32 noundef 483) #13
          to label %36 unwind label %45

36:                                               ; preds = %35
  unreachable

37:                                               ; preds = %33
  %38 = landingpad { ptr, i32 }
          cleanup
  %39 = extractvalue { ptr, i32 } %38, 0
  store ptr %39, ptr %18, align 8
  %40 = extractvalue { ptr, i32 } %38, 1
  store i32 %40, ptr %19, align 4
  br label %50

41:                                               ; preds = %34
  %42 = landingpad { ptr, i32 }
          cleanup
  %43 = extractvalue { ptr, i32 } %42, 0
  store ptr %43, ptr %18, align 8
  %44 = extractvalue { ptr, i32 } %42, 1
  store i32 %44, ptr %19, align 4
  br label %49

45:                                               ; preds = %35
  %46 = landingpad { ptr, i32 }
          cleanup
  %47 = extractvalue { ptr, i32 } %46, 0
  store ptr %47, ptr %18, align 8
  %48 = extractvalue { ptr, i32 } %46, 1
  store i32 %48, ptr %19, align 4
  call void @_ZNSt10filesystem7__cxx114pathD2Ev(ptr noundef nonnull align 8 dereferenceable(40) %20) #12
  br label %49

49:                                               ; preds = %45, %41
  call void @_ZNSt7__cxx1112basic_stringIcSt11char_traitsIcESaIcEED1Ev(ptr noundef nonnull align 8 dereferenceable(32) %16) #12
  br label %50

50:                                               ; preds = %49, %37
  call void @_ZNSaIcED1Ev(ptr noundef nonnull align 1 dereferenceable(1) %17) #12
  br label %89

51:                                               ; preds = %29, %8
  call void @_ZL13gmx_snew_implI11t_trxstatusEvPKcS2_iRPT_m(ptr noundef @.str.18, ptr noundef @.str.2, i32 noundef 486, ptr noundef nonnull align 8 dereferenceable(8) %21, i64 noundef 1)
  %52 = load ptr, ptr %21, align 8
  call void @_ZL11status_initP11t_trxstatus(ptr noundef %52)
  %53 = load ptr, ptr %11, align 8
  %54 = icmp ne ptr %53, null
  br i1 %54, label %55, label %65

55:                                               ; preds = %51
  %56 = load ptr, ptr %9, align 8
  %57 = load i8, ptr %10, align 1
  %58 = load ptr, ptr %11, align 8
  %59 = getelementptr inbounds %struct.t_trxstatus, ptr %58, i32 0, i32 6
  %60 = load ptr, ptr %21, align 8
  %61 = getelementptr inbounds %struct.t_trxstatus, ptr %60, i32 0, i32 6
  %62 = load i32, ptr %13, align 4
  %63 = load ptr, ptr %14, align 8
  call void @_ZN3gmx8ArrayRefIKiEC2IRS2_vEEOT_(ptr noundef nonnull align 8 dereferenceable(16) %22, ptr noundef nonnull align 8 dereferenceable(16) %6)
  %64 = load ptr, ptr %15, align 8
  call void @_Z23gmx_prepare_tng_writingRKNSt10filesystem7__cxx114pathEcPP18gmx_tng_trajectoryS6_iPK10gmx_mtop_tN3gmx8ArrayRefIKiEEPKc(ptr noundef nonnull align 8 dereferenceable(40) %56, i8 noundef signext %57, ptr noundef %59, ptr noundef %61, i32 noundef %62, ptr noundef %63, ptr noundef byval(%"class.gmx::ArrayRef") align 8 %22, ptr noundef %64)
  br label %87

65:                                               ; preds = %51
  %66 = load ptr, ptr %12, align 8
  %67 = call noundef i32 @_Z6fn2ftpRKNSt10filesystem7__cxx114pathE(ptr noundef nonnull align 8 dereferenceable(40) %66)
  %68 = icmp eq i32 %67, 7
  br i1 %68, label %69, label %78

69:                                               ; preds = %65
  %70 = load ptr, ptr %12, align 8
  call void @_Z12gmx_tng_openRKNSt10filesystem7__cxx114pathEcPP18gmx_tng_trajectory(ptr noundef nonnull align 8 dereferenceable(40) %70, i8 noundef signext 114, ptr noundef %23)
  %71 = load ptr, ptr %9, align 8
  %72 = load i8, ptr %10, align 1
  %73 = load ptr, ptr %21, align 8
  %74 = getelementptr inbounds %struct.t_trxstatus, ptr %73, i32 0, i32 6
  %75 = load i32, ptr %13, align 4
  %76 = load ptr, ptr %14, align 8
  call void @_ZN3gmx8ArrayRefIKiEC2IRS2_vEEOT_(ptr noundef nonnull align 8 dereferenceable(16) %24, ptr noundef nonnull align 8 dereferenceable(16) %6)
  %77 = load ptr, ptr %15, align 8
  call void @_Z23gmx_prepare_tng_writingRKNSt10filesystem7__cxx114pathEcPP18gmx_tng_trajectoryS6_iPK10gmx_mtop_tN3gmx8ArrayRefIKiEEPKc(ptr noundef nonnull align 8 dereferenceable(40) %71, i8 noundef signext %72, ptr noundef %23, ptr noundef %74, i32 noundef %75, ptr noundef %76, ptr noundef byval(%"class.gmx::ArrayRef") align 8 %24, ptr noundef %77)
  br label %86

78:                                               ; preds = %65
  %79 = load ptr, ptr %9, align 8
  %80 = load i8, ptr %10, align 1
  %81 = load ptr, ptr %21, align 8
  %82 = getelementptr inbounds %struct.t_trxstatus, ptr %81, i32 0, i32 6
  %83 = load i32, ptr %13, align 4
  %84 = load ptr, ptr %14, align 8
  call void @_ZN3gmx8ArrayRefIKiEC2IRS2_vEEOT_(ptr noundef nonnull align 8 dereferenceable(16) %25, ptr noundef nonnull align 8 dereferenceable(16) %6)
  %85 = load ptr, ptr %15, align 8
  call void @_Z23gmx_prepare_tng_writingRKNSt10filesystem7__cxx114pathEcPP18gmx_tng_trajectoryS6_iPK10gmx_mtop_tN3gmx8ArrayRefIKiEEPKc(ptr noundef nonnull align 8 dereferenceable(40) %79, i8 noundef signext %80, ptr noundef null, ptr noundef %82, i32 noundef %83, ptr noundef %84, ptr noundef byval(%"class.gmx::ArrayRef") align 8 %25, ptr noundef %85)
  br label %86

86:                                               ; preds = %78, %69
  br label %87

87:                                               ; preds = %86, %55
  %88 = load ptr, ptr %21, align 8
  ret ptr %88

89:                                               ; preds = %50
  %90 = load ptr, ptr %18, align 8
  %91 = load i32, ptr %19, align 4
  %92 = insertvalue { ptr, i32 } poison, ptr %90, 0
  %93 = insertvalue { ptr, i32 } %92, i32 %91, 1
  resume { ptr, i32 } %93
}