; Function Attrs: mustprogress uwtable
define noundef ptr @_Z32trjtools_gmx_prepare_tng_writingRKNSt10filesystem7__cxx114pathEcP11t_trxstatusS3_iPK10gmx_mtop_tN3gmx8ArrayRefIKiEEPKc(ptr noundef nonnull align 8 dereferenceable(40) %0, i8 noundef signext %1, ptr noundef %2, ptr noundef nonnull align 8 dereferenceable(40) %3, i32 noundef %4, ptr noundef %5, ptr nocapture noundef readonly byval(%"class.gmx::ArrayRef") align 8 %6, ptr noundef %7) local_unnamed_addr #2 personality ptr @__gxx_personality_v0 {
  %9 = alloca %"class.std::__cxx11::basic_string", align 8
  %10 = alloca %"class.std::allocator", align 1
  %11 = alloca %"class.std::filesystem::__cxx11::path", align 8
  %12 = alloca %"class.gmx::ArrayRef", align 8
  %13 = alloca ptr, align 8
  %14 = alloca %"class.gmx::ArrayRef", align 8
  %15 = alloca %"class.gmx::ArrayRef", align 8
  switch i8 %1, label %16 [
    i8 119, label %28
    i8 97, label %28
  ]

16:                                               ; preds = %8
  call void @_ZNSaIcEC1Ev(ptr noundef nonnull align 1 dereferenceable(1) %10) #18
  invoke void @_ZNSt7__cxx1112basic_stringIcSt11char_traitsIcESaIcEEC2IS3_EEPKcRKS3_(ptr noundef nonnull align 8 dereferenceable(32) %9, ptr noundef nonnull @.str.17, ptr noundef nonnull align 1 dereferenceable(1) %10)
          to label %17 unwind label %20

17:                                               ; preds = %16
  invoke void @_ZNSt10filesystem7__cxx114pathC2IA122_cS1_EERKT_NS1_6formatE(ptr noundef nonnull align 8 dereferenceable(40) %11, ptr noundef nonnull align 1 dereferenceable(122) @.str.2, i8 noundef zeroext 2)
          to label %18 unwind label %22

18:                                               ; preds = %17
  invoke void @_Z18gmx_error_functionPKcRKNSt7__cxx1112basic_stringIcSt11char_traitsIcESaIcEEERKNSt10filesystem7__cxx114pathEi(ptr noundef nonnull @.str.6, ptr noundef nonnull align 8 dereferenceable(32) %9, ptr noundef nonnull align 8 dereferenceable(40) %11, i32 noundef 483) #19
          to label %19 unwind label %24

19:                                               ; preds = %18
  unreachable

20:                                               ; preds = %16
  %21 = landingpad { ptr, i32 }
          cleanup
  br label %27

22:                                               ; preds = %17
  %23 = landingpad { ptr, i32 }
          cleanup
  br label %26

24:                                               ; preds = %18
  %25 = landingpad { ptr, i32 }
          cleanup
  call void @_ZNSt10filesystem7__cxx114pathD2Ev(ptr noundef nonnull align 8 dereferenceable(40) %11) #18
  br label %26

26:                                               ; preds = %24, %22
  %.pn = phi { ptr, i32 } [ %25, %24 ], [ %23, %22 ]
  call void @_ZNSt7__cxx1112basic_stringIcSt11char_traitsIcESaIcEED1Ev(ptr noundef nonnull align 8 dereferenceable(32) %9) #18
  br label %27

27:                                               ; preds = %26, %20
  %.pn.pn = phi { ptr, i32 } [ %.pn, %26 ], [ %21, %20 ]
  call void @_ZNSaIcED1Ev(ptr noundef nonnull align 1 dereferenceable(1) %10) #18
  resume { ptr, i32 } %.pn.pn

28:                                               ; preds = %8, %8
  %29 = tail call noundef ptr @_Z11save_callocPKcS0_imm(ptr noundef nonnull @.str.18, ptr noundef nonnull @.str.2, i32 noundef 486, i64 noundef 1, i64 noundef 56)
  store i32 0, ptr %29, align 8
  %30 = getelementptr inbounds i8, ptr %29, i64 16
  %31 = getelementptr inbounds i8, ptr %29, i64 4
  tail call void @llvm.memset.p0.i64(ptr noundef nonnull align 8 dereferenceable(16) %30, i8 0, i64 16, i1 false)
  store i32 -1, ptr %31, align 4
  %32 = getelementptr inbounds i8, ptr %29, i64 8
  store <2 x float> zeroinitializer, ptr %32, align 8
  %33 = getelementptr inbounds i8, ptr %29, i64 48
  store ptr null, ptr %33, align 8
  %34 = getelementptr inbounds i8, ptr %29, i64 32
  store ptr null, ptr %34, align 8
  %.not = icmp eq ptr %2, null
  br i1 %.not, label %45, label %35

35:                                               ; preds = %28
  %36 = getelementptr inbounds i8, ptr %2, i64 32
  %37 = load ptr, ptr %6, align 8
  store ptr %37, ptr %12, align 8
  %38 = getelementptr inbounds i8, ptr %12, i64 8
  %39 = getelementptr inbounds i8, ptr %6, i64 8
  %40 = load ptr, ptr %39, align 8
  %41 = ptrtoint ptr %40 to i64
  %42 = ptrtoint ptr %37 to i64
  %43 = sub i64 %41, %42
  %44 = getelementptr inbounds i8, ptr %37, i64 %43
  store ptr %44, ptr %38, align 8
  tail call void @_Z23gmx_prepare_tng_writingRKNSt10filesystem7__cxx114pathEcPP18gmx_tng_trajectoryS6_iPK10gmx_mtop_tN3gmx8ArrayRefIKiEEPKc(ptr noundef nonnull align 8 dereferenceable(40) %0, i8 noundef signext %1, ptr noundef nonnull %36, ptr noundef nonnull %34, i32 noundef %4, ptr noundef %5, ptr noundef nonnull byval(%"class.gmx::ArrayRef") align 8 %12, ptr noundef %7)
  br label %66

45:                                               ; preds = %28
  %46 = tail call noundef i32 @_Z6fn2ftpRKNSt10filesystem7__cxx114pathE(ptr noundef nonnull align 8 dereferenceable(40) %3)
  %47 = icmp eq i32 %46, 7
  br i1 %47, label %48, label %57

48:                                               ; preds = %45
  call void @_Z12gmx_tng_openRKNSt10filesystem7__cxx114pathEcPP18gmx_tng_trajectory(ptr noundef nonnull align 8 dereferenceable(40) %3, i8 noundef signext 114, ptr noundef nonnull %13)
  %49 = load ptr, ptr %6, align 8
  store ptr %49, ptr %14, align 8
  %50 = getelementptr inbounds i8, ptr %14, i64 8
  %51 = getelementptr inbounds i8, ptr %6, i64 8
  %52 = load ptr, ptr %51, align 8
  %53 = ptrtoint ptr %52 to i64
  %54 = ptrtoint ptr %49 to i64
  %55 = sub i64 %53, %54
  %56 = getelementptr inbounds i8, ptr %49, i64 %55
  store ptr %56, ptr %50, align 8
  call void @_Z23gmx_prepare_tng_writingRKNSt10filesystem7__cxx114pathEcPP18gmx_tng_trajectoryS6_iPK10gmx_mtop_tN3gmx8ArrayRefIKiEEPKc(ptr noundef nonnull align 8 dereferenceable(40) %0, i8 noundef signext %1, ptr noundef nonnull %13, ptr noundef nonnull %34, i32 noundef %4, ptr noundef %5, ptr noundef nonnull byval(%"class.gmx::ArrayRef") align 8 %14, ptr noundef %7)
  br label %66

57:                                               ; preds = %45
  %58 = load ptr, ptr %6, align 8
  store ptr %58, ptr %15, align 8
  %59 = getelementptr inbounds i8, ptr %15, i64 8
  %60 = getelementptr inbounds i8, ptr %6, i64 8
  %61 = load ptr, ptr %60, align 8
  %62 = ptrtoint ptr %61 to i64
  %63 = ptrtoint ptr %58 to i64
  %64 = sub i64 %62, %63
  %65 = getelementptr inbounds i8, ptr %58, i64 %64
  store ptr %65, ptr %59, align 8
  tail call void @_Z23gmx_prepare_tng_writingRKNSt10filesystem7__cxx114pathEcPP18gmx_tng_trajectoryS6_iPK10gmx_mtop_tN3gmx8ArrayRefIKiEEPKc(ptr noundef nonnull align 8 dereferenceable(40) %0, i8 noundef signext %1, ptr noundef null, ptr noundef nonnull %34, i32 noundef %4, ptr noundef %5, ptr noundef nonnull byval(%"class.gmx::ArrayRef") align 8 %15, ptr noundef %7)
  br label %66

66:                                               ; preds = %48, %57, %35
  ret ptr %29
}